; Function Attrs: nounwind uwtable
define zeroext range(i8 0, 2) i8 @l_Array_anyMUnsafe_any___at_Lean_PersistentHashMap_Node_isEmpty___spec__1___rarg(ptr noundef readonly captures(none) %0, i64 noundef %1, i64 noundef %2) local_unnamed_addr #2 {
  %.not50 = icmp eq i64 %1, %2
  br i1 %.not50, label %.loopexit, label %.lr.ph

.lr.ph:                                           ; preds = %3
  %4 = getelementptr inbounds nuw i8, ptr %0, i64 24
  br label %5

5:                                                ; preds = %.lr.ph, %lean_dec.exit
  %.02351 = phi i64 [ %1, %.lr.ph ], [ %.326, %lean_dec.exit ]
  %6 = getelementptr inbounds nuw [0 x ptr], ptr %4, i64 0, i64 %.02351
  %7 = load ptr, ptr %6, align 8, !tbaa !9
  %8 = ptrtoint ptr %7 to i64
  %9 = and i64 %8, 1
  %.not.i36 = icmp eq i64 %9, 0
  br i1 %.not.i36, label %10, label %lean_array_uget.exit

10:                                               ; preds = %5
  %.val.i.i = load i32, ptr %7, align 4, !tbaa !4
  %11 = icmp sgt i32 %.val.i.i, 0
  br i1 %11, label %12, label %14, !prof !11

12:                                               ; preds = %10
  %13 = add nuw i32 %.val.i.i, 1
  store i32 %13, ptr %7, align 4, !tbaa !4
  br label %18

14:                                               ; preds = %10
  %.not.i.i = icmp eq i32 %.val.i.i, 0
  br i1 %.not.i.i, label %18, label %15

15:                                               ; preds = %14
  tail call void @lean_inc_ref_cold(ptr noundef nonnull %7) #7
  br label %18

lean_array_uget.exit:                             ; preds = %5
  %16 = lshr i64 %8, 1
  %17 = trunc i64 %16 to i32
  br label %lean_obj_tag.exit

18:                                               ; preds = %12, %14, %15
  %19 = getelementptr i8, ptr %7, i64 4
  %.val.i = load i32, ptr %19, align 4
  %20 = lshr i32 %.val.i, 24
  br label %lean_obj_tag.exit

lean_obj_tag.exit:                                ; preds = %lean_array_uget.exit, %18
  %.0.i = phi i32 [ %17, %lean_array_uget.exit ], [ %20, %18 ]
  switch i32 %.0.i, label %lean_dec.exit [
    i32 0, label %21
    i32 1, label %29
  ]

21:                                               ; preds = %lean_obj_tag.exit
  br i1 %.not.i36, label %22, label %.loopexit

22:                                               ; preds = %21
  %23 = load i32, ptr %7, align 4, !tbaa !4
  %24 = icmp sgt i32 %23, 1
  br i1 %24, label %25, label %27, !prof !11

25:                                               ; preds = %22
  %26 = add nsw i32 %23, -1
  store i32 %26, ptr %7, align 4, !tbaa !4
  br label %.loopexit

27:                                               ; preds = %22
  %.not.i34 = icmp eq i32 %23, 0
  br i1 %.not.i34, label %.loopexit, label %28

28:                                               ; preds = %27
  tail call void @lean_dec_ref_cold(ptr noundef nonnull %7) #7
  br label %.loopexit

29:                                               ; preds = %lean_obj_tag.exit
  %30 = getelementptr inbounds nuw i8, ptr %7, i64 8
  %31 = load ptr, ptr %30, align 8, !tbaa !9
  %32 = ptrtoint ptr %31 to i64
  %33 = and i64 %32, 1
  %.not46 = icmp eq i64 %33, 0
  br i1 %.not46, label %34, label %lean_inc.exit

34:                                               ; preds = %29
  %.val.i38 = load i32, ptr %31, align 4, !tbaa !4
  %35 = icmp sgt i32 %.val.i38, 0
  br i1 %35, label %36, label %38, !prof !11

36:                                               ; preds = %34
  %37 = add nuw i32 %.val.i38, 1
  store i32 %37, ptr %31, align 4, !tbaa !4
  br label %lean_inc.exit

38:                                               ; preds = %34
  %.not.i39 = icmp eq i32 %.val.i38, 0
  br i1 %.not.i39, label %lean_inc.exit, label %39

39:                                               ; preds = %38
  tail call void @lean_inc_ref_cold(ptr noundef nonnull %31) #7
  br label %lean_inc.exit

lean_inc.exit:                                    ; preds = %39, %38, %36, %29
  br i1 %.not.i36, label %40, label %lean_dec.exit30

40:                                               ; preds = %lean_inc.exit
  %41 = load i32, ptr %7, align 4, !tbaa !4
  %42 = icmp sgt i32 %41, 1
  br i1 %42, label %43, label %45, !prof !11

43:                                               ; preds = %40
  %44 = add nsw i32 %41, -1
  store i32 %44, ptr %7, align 4, !tbaa !4
  br label %lean_dec.exit30

45:                                               ; preds = %40
  %.not.i32 = icmp eq i32 %41, 0
  br i1 %.not.i32, label %lean_dec.exit30, label %46

46:                                               ; preds = %45
  tail call void @lean_dec_ref_cold(ptr noundef nonnull %7) #7
  br label %lean_dec.exit30

lean_dec.exit30:                                  ; preds = %46, %45, %43, %lean_inc.exit
  %47 = tail call zeroext i8 @l_Lean_PersistentHashMap_Node_isEmpty___rarg(ptr noundef %31)
  br i1 %.not46, label %48, label %lean_dec.exit31

48:                                               ; preds = %lean_dec.exit30
  %49 = load i32, ptr %31, align 4, !tbaa !4
  %50 = icmp sgt i32 %49, 1
  br i1 %50, label %51, label %53, !prof !11

51:                                               ; preds = %48
  %52 = add nsw i32 %49, -1
  store i32 %52, ptr %31, align 4, !tbaa !4
  br label %lean_dec.exit31

53:                                               ; preds = %48
  %.not.i = icmp eq i32 %49, 0
  br i1 %.not.i, label %lean_dec.exit31, label %54

54:                                               ; preds = %53
  tail call void @lean_dec_ref_cold(ptr noundef nonnull %31) #7
  br label %lean_dec.exit31

lean_dec.exit31:                                  ; preds = %54, %53, %51, %lean_dec.exit30
  %55 = icmp eq i8 %47, 0
  br i1 %55, label %.loopexit, label %lean_dec.exit

lean_dec.exit:                                    ; preds = %lean_obj_tag.exit, %lean_dec.exit31
  %.326 = add i64 %.02351, 1
  %.not = icmp eq i64 %.326, %2
  br i1 %.not, label %.loopexit, label %5

.loopexit:                                        ; preds = %lean_dec.exit, %lean_dec.exit31, %3, %28, %27, %25, %21
  %.3.ph = phi i8 [ 1, %21 ], [ 1, %25 ], [ 1, %27 ], [ 1, %28 ], [ 0, %3 ], [ 0, %lean_dec.exit ], [ 1, %lean_dec.exit31 ]
  ret i8 %.3.ph
}